; Function Attrs: nounwind uwtable
define internal fastcc range(i32 -1, 1) i32 @H5D__farray_idx_depend(ptr nocapture noundef readonly %0) unnamed_addr #1 {
  %2 = alloca %struct.H5O_loc_t, align 8
  %3 = call i32 @H5O_loc_reset(ptr noundef nonnull %2) #11
  %4 = load ptr, ptr %0, align 8
  store ptr %4, ptr %2, align 8
  %5 = getelementptr inbounds i8, ptr %0, i64 24
  %6 = load ptr, ptr %5, align 8
  %7 = getelementptr inbounds i8, ptr %6, i64 24
  %8 = load i64, ptr %7, align 8
  %9 = getelementptr inbounds i8, ptr %2, i64 8
  store i64 %8, ptr %9, align 8
  %10 = call ptr @H5O_protect(ptr noundef nonnull %2, i32 noundef 128, i1 noundef zeroext true) #11
  %11 = icmp eq ptr %10, null
  br i1 %11, label %29, label %12

12:                                               ; preds = %1
  %13 = call ptr @H5O_get_proxy(ptr noundef nonnull %10) #11
  %14 = icmp eq ptr %13, null
  br i1 %14, label %15, label %19

15:                                               ; preds = %12
  %16 = load i64, ptr @H5E_DATASET_g, align 8
  %17 = load i64, ptr @H5E_CANTGET_g, align 8
  %18 = call i32 (ptr, ptr, i32, i64, i64, ptr, ...) @H5E_printf_stack(ptr noundef nonnull @.str.2, ptr noundef nonnull @__func__.H5D__farray_idx_depend, i32 noundef 698, i64 noundef %16, i64 noundef %17, ptr noundef nonnull @.str.17) #11
  br label %33

19:                                               ; preds = %12
  %20 = load ptr, ptr %5, align 8
  %21 = getelementptr inbounds i8, ptr %20, i64 32
  %22 = load ptr, ptr %21, align 8
  %23 = call i32 @H5FA_depend(ptr noundef %22, ptr noundef nonnull %13) #11
  %24 = icmp slt i32 %23, 0
  br i1 %24, label %25, label %33

25:                                               ; preds = %19
  %26 = load i64, ptr @H5E_DATASET_g, align 8
  %27 = load i64, ptr @H5E_CANTDEPEND_g, align 8
  %28 = call i32 (ptr, ptr, i32, i64, i64, ptr, ...) @H5E_printf_stack(ptr noundef nonnull @.str.2, ptr noundef nonnull @__func__.H5D__farray_idx_depend, i32 noundef 703, i64 noundef %26, i64 noundef %27, ptr noundef nonnull @.str.18) #11
  br label %33

29:                                               ; preds = %1
  %30 = load i64, ptr @H5E_DATASET_g, align 8
  %31 = load i64, ptr @H5E_CANTPROTECT_g, align 8
  %32 = call i32 (ptr, ptr, i32, i64, i64, ptr, ...) @H5E_printf_stack(ptr noundef nonnull @.str.2, ptr noundef nonnull @__func__.H5D__farray_idx_depend, i32 noundef 694, i64 noundef %30, i64 noundef %31, ptr noundef nonnull @.str.16) #11
  br label %40

33:                                               ; preds = %19, %25, %15
  %.0.ph = phi i32 [ 0, %19 ], [ -1, %25 ], [ -1, %15 ]
  %34 = call i32 @H5O_unprotect(ptr noundef nonnull %2, ptr noundef nonnull %10, i32 noundef 0) #11
  %35 = icmp slt i32 %34, 0
  br i1 %35, label %36, label %40

36:                                               ; preds = %33
  %37 = load i64, ptr @H5E_DATASET_g, align 8
  %38 = load i64, ptr @H5E_CANTUNPROTECT_g, align 8
  %39 = call i32 (ptr, ptr, i32, i64, i64, ptr, ...) @H5E_printf_stack(ptr noundef nonnull @.str.2, ptr noundef nonnull @__func__.H5D__farray_idx_depend, i32 noundef 708, i64 noundef %37, i64 noundef %38, ptr noundef nonnull @.str.19) #11
  br label %40

40:                                               ; preds = %29, %36, %33
  %.1 = phi i32 [ -1, %36 ], [ %.0.ph, %33 ], [ -1, %29 ]
  ret i32 %.1
}